(lp0
S'19Sc@60Pd'
p1
aS'19Sc@60Ag'
p2
aS'19Ti@60Mn'
p3
aS'19Ti@60Au'
p4
aS'19V,@60u'
p5
aS'19Cr@60Cu'
p6
aS'19Cr@60Au'
p7
aS'19Mn@60Fe'
p8
aS'19Mn@60Ag'
p9
aS'19Mn@60Pt'
p10
aS'19Mn@60Au'
p11
aS'19Fe@60Ag'
p12
aS'19Fe@60Au'
p13
aS'19Co@60Au'
p14
aS'19Ni@60Cu'
p15
aS'19Ni@60Au'
p16
aS'19Zn@60Ag'
p17
aS'19Y,@60'
p18
aS'19Y,@60e'
p19
aS'19Y,@60u'
p20
aS'19Nb@60Au'
p21
aS'19Mo@60Au'
p22
aS'19Tc@60Mn'
p23
aS'19Tc@60Au'
p24
aS'19Ru@60Au'
p25
aS'19Rh@60Au'
p26
aS'19Pd@60Fe'
p27
aS'19Pd@60Mo'
p28
aS'19Pd@60Au'
p29
aS'19Ag@60Ir'
p30
aS'19Hf@60Mn'
p31
aS'19Ta@60Ag'
p32
aS'19Ta@60Au'
p33
aS'19W,@60r'
p34
aS'19W,@60u'
p35
aS'19Re@60Mn'
p36
aS'19Re@60Fe'
p37
aS'19Re@60Pt'
p38
aS'19Re@60Au'
p39
aS'19Os@60Ti'
p40
aS'19Os@60Ir'
p41
aS'19Os@60Au'
p42
aS'19Ir@60Au'
p43
aS'19Pt@60Ti'
p44
aS'19Pt@60Au'
p45
aS'19Au@60Cu'
p46
aS'19Au@60Mo'
p47
aS'19Au@60Ir'
p48
a.