(lp0
S'6Sc@32Cr'
p1
aS'6Sc@32Tc'
p2
aS'6Ti@32Pd'
p3
aS'6Ti@32Pt'
p4
aS'6V@32Pd'
p5
aS'6V@32Ag'
p6
aS'6V@32Ir'
p7
aS'6V@32Au'
p8
aS'6Cr@32Y'
p9
aS'6Cr@32Pt'
p10
aS'6Mn@32Ag'
p11
aS'6Mn@32Ir'
p12
aS'6Mn@32Au'
p13
aS'6Fe@32Ag'
p14
aS'6Fe@32Hf'
p15
aS'6Fe@32Au'
p16
aS'6Co@32Sc'
p17
aS'6Co@32Ag'
p18
aS'6Co@32Au'
p19
aS'6Ni@32Ag'
p20
aS'6Ni@32Pt'
p21
aS'6Ni@32Au'
p22
aS'6Cu@32Cr'
p23
aS'6Cu@32Hf'
p24
aS'6Cu@32Pt'
p25
aS'6Zn@32Sc'
p26
aS'6Zn@32Mn'
p27
aS'6Zn@32Pd'
p28
aS'6Y@32Mn'
p29
aS'6Y@32Rh'
p30
aS'6Y@32Pt'
p31
aS'6Y@32Au'
p32
aS'6Zr@32Pd'
p33
aS'6Zr@32Ag'
p34
aS'6Nb@32Pd'
p35
aS'6Nb@32Ag'
p36
aS'6Nb@32Pt'
p37
aS'6Mo@32Y'
p38
aS'6Mo@32Pd'
p39
aS'6Tc@32Pd'
p40
aS'6Tc@32Ag'
p41
aS'6Tc@32Pt'
p42
aS'6Ru@32Y'
p43
aS'6Ru@32Pt'
p44
aS'6Hf@32Pd'
p45
aS'6Hf@32Ag'
p46
aS'6Hf@32Au'
p47
aS'6Ta@32Pd'
p48
aS'6Ta@32Ir'
p49
aS'6Ta@32Pt'
p50
aS'6Ta@32Au'
p51
aS'6W@32Rh'
p52
aS'6W@32Pd'
p53
aS'6W@32Pt'
p54
aS'6Re@32Pt'
p55
aS'6Os@32Pt'
p56
aS'6Ir@32Y'
p57
a.