(lp0
S'6Sc@32Pd'
p1
aS'6Sc@32Ag'
p2
aS'6Ti@32Mn'
p3
aS'6Ti@32Au'
p4
aS'6V@32Au'
p5
aS'6Cr@32Cu'
p6
aS'6Cr@32Au'
p7
aS'6Mn@32Fe'
p8
aS'6Mn@32Ag'
p9
aS'6Mn@32Pt'
p10
aS'6Mn@32Au'
p11
aS'6Fe@32Ag'
p12
aS'6Fe@32Au'
p13
aS'6Co@32Au'
p14
aS'6Ni@32Cu'
p15
aS'6Ni@32Au'
p16
aS'6Zn@32Ag'
p17
aS'6Y@32W'
p18
aS'6Y@32Re'
p19
aS'6Y@32Au'
p20
aS'6Nb@32Au'
p21
aS'6Mo@32Au'
p22
aS'6Tc@32Mn'
p23
aS'6Tc@32Au'
p24
aS'6Ru@32Au'
p25
aS'6Rh@32Au'
p26
aS'6Pd@32Fe'
p27
aS'6Pd@32Mo'
p28
aS'6Pd@32Au'
p29
aS'6Ag@32Ir'
p30
aS'6Hf@32Mn'
p31
aS'6Ta@32Ag'
p32
aS'6Ta@32Au'
p33
aS'6W@32Ir'
p34
aS'6W@32Au'
p35
aS'6Re@32Mn'
p36
aS'6Re@32Fe'
p37
aS'6Re@32Pt'
p38
aS'6Re@32Au'
p39
aS'6Os@32Ti'
p40
aS'6Os@32Ir'
p41
aS'6Os@32Au'
p42
aS'6Ir@32Au'
p43
aS'6Pt@32Ti'
p44
aS'6Pt@32Au'
p45
aS'6Au@32Cu'
p46
aS'6Au@32Mo'
p47
aS'6Au@32Ir'
p48
a.